target datalayout = "e-m:e-p270:32:32-p271:32:32-p272:64:64-i64:64-i128:128-f80:128-n8:16:32:64-S128"
target triple = "x86_64-pc-linux-gnu"

%struct.lua_TValue = type { %union.Value, i32 }
%union.Value = type { ptr }
%struct.lua_State = type { ptr, i8, i8, i8, ptr, ptr, ptr, ptr, ptr, ptr, ptr, ptr, ptr, i32, i32, i16, i16, i8, i8, i32, i32, ptr, %struct.lua_TValue, %struct.lua_TValue, ptr, ptr, ptr, i64 }
%struct.CallInfo = type { ptr, ptr, ptr, ptr, i32, i32 }
%struct.global_State = type { %struct.stringtable, ptr, ptr, i8, i8, i32, ptr, ptr, ptr, ptr, ptr, ptr, %struct.Mbuffer, i64, i64, i64, i64, i32, i32, ptr, %struct.lua_TValue, ptr, %struct.UpVal, [9 x ptr], [17 x ptr] }
%struct.stringtable = type { ptr, i32, i32 }
%struct.Mbuffer = type { ptr, i64, i64 }
%struct.UpVal = type { ptr, i8, i8, ptr, %union.anon }
%union.anon = type { %struct.lua_TValue }
%struct.CClosure = type { ptr, i8, i8, i8, i8, ptr, ptr, ptr, [1 x %struct.lua_TValue] }
%struct.GCheader = type { ptr, i8, i8 }
%struct.anon.0 = type { ptr, i8, i8, i8, i32, i64 }
%union.TString = type { %struct.anon.0 }
%struct.LClosure = type { ptr, i8, i8, i8, i8, ptr, ptr, ptr, [1 x ptr] }
%struct.Proto = type { ptr, i8, i8, ptr, ptr, ptr, ptr, ptr, ptr, ptr, i32, i32, i32, i32, i32, i32, i32, i32, ptr, i8, i8, i8, i8 }

@luaO_nilobject_ = external hidden constant %struct.lua_TValue, align 8
@.str.4 = private unnamed_addr constant [1 x i8] zeroinitializer, align 1

; Function Attrs: nounwind uwtable
define internal ptr @aux_upvalue(ptr noundef %0, i32 noundef %1, ptr noundef %2) #0 {
  %4 = alloca ptr, align 8
  %5 = alloca ptr, align 8
  %6 = alloca i32, align 4
  %7 = alloca ptr, align 8
  %8 = alloca ptr, align 8
  %9 = alloca i32, align 4
  %10 = alloca ptr, align 8
  store ptr %0, ptr %5, align 8, !tbaa !9
  store i32 %1, ptr %6, align 4, !tbaa !25
  store ptr %2, ptr %7, align 8, !tbaa !85
  call void @llvm.lifetime.start.p0(i64 8, ptr %8) #6
  %11 = load ptr, ptr %5, align 8, !tbaa !9
  %12 = getelementptr inbounds nuw %struct.lua_TValue, ptr %11, i32 0, i32 1
  %13 = load i32, ptr %12, align 8, !tbaa !24
  %14 = icmp eq i32 %13, 6
  br i1 %14, label %16, label %15

15:                                               ; preds = %3
  store ptr null, ptr %4, align 8
  store i32 1, ptr %9, align 4
  br label %77

16:                                               ; preds = %3
  %17 = load ptr, ptr %5, align 8, !tbaa !9
  %18 = getelementptr inbounds nuw %struct.lua_TValue, ptr %17, i32 0, i32 0
  %19 = load ptr, ptr %18, align 8, !tbaa !23
  store ptr %19, ptr %8, align 8, !tbaa !48
  %20 = load ptr, ptr %8, align 8, !tbaa !48
  %21 = getelementptr inbounds nuw %struct.CClosure, ptr %20, i32 0, i32 3
  %22 = load i8, ptr %21, align 2, !tbaa !23
  %23 = icmp ne i8 %22, 0
  br i1 %23, label %24, label %43

24:                                               ; preds = %16
  %25 = load i32, ptr %6, align 4, !tbaa !25
  %26 = icmp sle i32 1, %25
  br i1 %26, label %27, label %34

27:                                               ; preds = %24
  %28 = load i32, ptr %6, align 4, !tbaa !25
  %29 = load ptr, ptr %8, align 8, !tbaa !48
  %30 = getelementptr inbounds nuw %struct.CClosure, ptr %29, i32 0, i32 4
  %31 = load i8, ptr %30, align 1, !tbaa !23
  %32 = zext i8 %31 to i32
  %33 = icmp sle i32 %28, %32
  br i1 %33, label %35, label %34

34:                                               ; preds = %27, %24
  store ptr null, ptr %4, align 8
  store i32 1, ptr %9, align 4
  br label %77

35:                                               ; preds = %27
  %36 = load ptr, ptr %8, align 8, !tbaa !48
  %37 = getelementptr inbounds nuw %struct.CClosure, ptr %36, i32 0, i32 8
  %38 = load i32, ptr %6, align 4, !tbaa !25
  %39 = sub nsw i32 %38, 1
  %40 = sext i32 %39 to i64
  %41 = getelementptr inbounds [1 x %struct.lua_TValue], ptr %37, i64 0, i64 %40
  %42 = load ptr, ptr %7, align 8, !tbaa !85
  store ptr %41, ptr %42, align 8, !tbaa !9
  store ptr @.str.4, ptr %4, align 8
  store i32 1, ptr %9, align 4
  br label %77

43:                                               ; preds = %16
  call void @llvm.lifetime.start.p0(i64 8, ptr %10) #6
  %44 = load ptr, ptr %8, align 8, !tbaa !48
  %45 = getelementptr inbounds nuw %struct.LClosure, ptr %44, i32 0, i32 7
  %46 = load ptr, ptr %45, align 8, !tbaa !23
  store ptr %46, ptr %10, align 8, !tbaa !87
  %47 = load i32, ptr %6, align 4, !tbaa !25
  %48 = icmp sle i32 1, %47
  br i1 %48, label %49, label %55

49:                                               ; preds = %43
  %50 = load i32, ptr %6, align 4, !tbaa !25
  %51 = load ptr, ptr %10, align 8, !tbaa !87
  %52 = getelementptr inbounds nuw %struct.Proto, ptr %51, i32 0, i32 10
  %53 = load i32, ptr %52, align 8, !tbaa !89
  %54 = icmp sle i32 %50, %53
  br i1 %54, label %56, label %55

55:                                               ; preds = %49, %43
  store ptr null, ptr %4, align 8
  store i32 1, ptr %9, align 4
  br label %76

56:                                               ; preds = %49
  %57 = load ptr, ptr %8, align 8, !tbaa !48
  %58 = getelementptr inbounds nuw %struct.LClosure, ptr %57, i32 0, i32 8
  %59 = load i32, ptr %6, align 4, !tbaa !25
  %60 = sub nsw i32 %59, 1
  %61 = sext i32 %60 to i64
  %62 = getelementptr inbounds [1 x ptr], ptr %58, i64 0, i64 %61
  %63 = load ptr, ptr %62, align 8, !tbaa !23
  %64 = getelementptr inbounds nuw %struct.UpVal, ptr %63, i32 0, i32 3
  %65 = load ptr, ptr %64, align 8, !tbaa !95
  %66 = load ptr, ptr %7, align 8, !tbaa !85
  store ptr %65, ptr %66, align 8, !tbaa !9
  %67 = load ptr, ptr %10, align 8, !tbaa !87
  %68 = getelementptr inbounds nuw %struct.Proto, ptr %67, i32 0, i32 8
  %69 = load ptr, ptr %68, align 8, !tbaa !96
  %70 = load i32, ptr %6, align 4, !tbaa !25
  %71 = sub nsw i32 %70, 1
  %72 = sext i32 %71 to i64
  %73 = getelementptr inbounds ptr, ptr %69, i64 %72
  %74 = load ptr, ptr %73, align 8, !tbaa !97
  %75 = getelementptr inbounds %union.TString, ptr %74, i64 1
  store ptr %75, ptr %4, align 8
  store i32 1, ptr %9, align 4
  br label %76

76:                                               ; preds = %56, %55
  call void @llvm.lifetime.end.p0(i64 8, ptr %10) #6
  br label %77

77:                                               ; preds = %76, %35, %34, %15
  call void @llvm.lifetime.end.p0(i64 8, ptr %8) #6
  %78 = load ptr, ptr %4, align 8
  ret ptr %78
}

; Function Attrs: nounwind uwtable
define internal ptr @index2adr(ptr noundef %0, i32 noundef %1) #0 {
  %3 = alloca ptr, align 8
  %4 = alloca ptr, align 8
  %5 = alloca i32, align 4
  %6 = alloca ptr, align 8
  %7 = alloca i32, align 4
  %8 = alloca ptr, align 8
  %9 = alloca ptr, align 8
  %10 = alloca ptr, align 8
  store ptr %0, ptr %4, align 8, !tbaa !4
  store i32 %1, ptr %5, align 4, !tbaa !25
  %11 = load i32, ptr %5, align 4, !tbaa !25
  %12 = icmp sgt i32 %11, 0
  br i1 %12, label %13, label %30

13:                                               ; preds = %2
  call void @llvm.lifetime.start.p0(i64 8, ptr %6) #6
  %14 = load ptr, ptr %4, align 8, !tbaa !4
  %15 = getelementptr inbounds nuw %struct.lua_State, ptr %14, i32 0, i32 5
  %16 = load ptr, ptr %15, align 8, !tbaa !26
  %17 = load i32, ptr %5, align 4, !tbaa !25
  %18 = sub nsw i32 %17, 1
  %19 = sext i32 %18 to i64
  %20 = getelementptr inbounds %struct.lua_TValue, ptr %16, i64 %19
  store ptr %20, ptr %6, align 8, !tbaa !9
  %21 = load ptr, ptr %6, align 8, !tbaa !9
  %22 = load ptr, ptr %4, align 8, !tbaa !4
  %23 = getelementptr inbounds nuw %struct.lua_State, ptr %22, i32 0, i32 4
  %24 = load ptr, ptr %23, align 8, !tbaa !11
  %25 = icmp uge ptr %21, %24
  br i1 %25, label %26, label %27

26:                                               ; preds = %13
  store ptr @luaO_nilobject_, ptr %3, align 8
  store i32 1, ptr %7, align 4
  br label %29

27:                                               ; preds = %13
  %28 = load ptr, ptr %6, align 8, !tbaa !9
  store ptr %28, ptr %3, align 8
  store i32 1, ptr %7, align 4
  br label %29

29:                                               ; preds = %27, %26
  call void @llvm.lifetime.end.p0(i64 8, ptr %6) #6
  br label %95

30:                                               ; preds = %2
  %31 = load i32, ptr %5, align 4, !tbaa !25
  %32 = icmp sgt i32 %31, -10000
  br i1 %32, label %33, label %40

33:                                               ; preds = %30
  %34 = load ptr, ptr %4, align 8, !tbaa !4
  %35 = getelementptr inbounds nuw %struct.lua_State, ptr %34, i32 0, i32 4
  %36 = load ptr, ptr %35, align 8, !tbaa !11
  %37 = load i32, ptr %5, align 4, !tbaa !25
  %38 = sext i32 %37 to i64
  %39 = getelementptr inbounds %struct.lua_TValue, ptr %36, i64 %38
  store ptr %39, ptr %3, align 8
  br label %95

40:                                               ; preds = %30
  %41 = load i32, ptr %5, align 4, !tbaa !25
  switch i32 %41, label %69 [
    i32 -10000, label %42
    i32 -10001, label %47
    i32 -10002, label %66
  ]

42:                                               ; preds = %40
  %43 = load ptr, ptr %4, align 8, !tbaa !4
  %44 = getelementptr inbounds nuw %struct.lua_State, ptr %43, i32 0, i32 6
  %45 = load ptr, ptr %44, align 8, !tbaa !35
  %46 = getelementptr inbounds nuw %struct.global_State, ptr %45, i32 0, i32 20
  store ptr %46, ptr %3, align 8
  br label %95

47:                                               ; preds = %40
  call void @llvm.lifetime.start.p0(i64 8, ptr %8) #6
  %48 = load ptr, ptr %4, align 8, !tbaa !4
  %49 = getelementptr inbounds nuw %struct.lua_State, ptr %48, i32 0, i32 7
  %50 = load ptr, ptr %49, align 8, !tbaa !28
  %51 = getelementptr inbounds nuw %struct.CallInfo, ptr %50, i32 0, i32 1
  %52 = load ptr, ptr %51, align 8, !tbaa !47
  %53 = getelementptr inbounds nuw %struct.lua_TValue, ptr %52, i32 0, i32 0
  %54 = load ptr, ptr %53, align 8, !tbaa !23
  store ptr %54, ptr %8, align 8, !tbaa !48
  call void @llvm.lifetime.start.p0(i64 8, ptr %9) #6
  %55 = load ptr, ptr %4, align 8, !tbaa !4
  %56 = getelementptr inbounds nuw %struct.lua_State, ptr %55, i32 0, i32 23
  store ptr %56, ptr %9, align 8, !tbaa !9
  %57 = load ptr, ptr %8, align 8, !tbaa !48
  %58 = getelementptr inbounds nuw %struct.CClosure, ptr %57, i32 0, i32 6
  %59 = load ptr, ptr %58, align 8, !tbaa !23
  %60 = load ptr, ptr %9, align 8, !tbaa !9
  %61 = getelementptr inbounds nuw %struct.lua_TValue, ptr %60, i32 0, i32 0
  store ptr %59, ptr %61, align 8, !tbaa !23
  %62 = load ptr, ptr %9, align 8, !tbaa !9
  %63 = getelementptr inbounds nuw %struct.lua_TValue, ptr %62, i32 0, i32 1
  store i32 5, ptr %63, align 8, !tbaa !24
  call void @llvm.lifetime.end.p0(i64 8, ptr %9) #6
  %64 = load ptr, ptr %4, align 8, !tbaa !4
  %65 = getelementptr inbounds nuw %struct.lua_State, ptr %64, i32 0, i32 23
  store ptr %65, ptr %3, align 8
  store i32 1, ptr %7, align 4
  call void @llvm.lifetime.end.p0(i64 8, ptr %8) #6
  br label %95

66:                                               ; preds = %40
  %67 = load ptr, ptr %4, align 8, !tbaa !4
  %68 = getelementptr inbounds nuw %struct.lua_State, ptr %67, i32 0, i32 22
  store ptr %68, ptr %3, align 8
  br label %95

69:                                               ; preds = %40
  call void @llvm.lifetime.start.p0(i64 8, ptr %10) #6
  %70 = load ptr, ptr %4, align 8, !tbaa !4
  %71 = getelementptr inbounds nuw %struct.lua_State, ptr %70, i32 0, i32 7
  %72 = load ptr, ptr %71, align 8, !tbaa !28
  %73 = getelementptr inbounds nuw %struct.CallInfo, ptr %72, i32 0, i32 1
  %74 = load ptr, ptr %73, align 8, !tbaa !47
  %75 = getelementptr inbounds nuw %struct.lua_TValue, ptr %74, i32 0, i32 0
  %76 = load ptr, ptr %75, align 8, !tbaa !23
  store ptr %76, ptr %10, align 8, !tbaa !48
  %77 = load i32, ptr %5, align 4, !tbaa !25
  %78 = sub nsw i32 -10002, %77
  store i32 %78, ptr %5, align 4, !tbaa !25
  %79 = load i32, ptr %5, align 4, !tbaa !25
  %80 = load ptr, ptr %10, align 8, !tbaa !48
  %81 = getelementptr inbounds nuw %struct.CClosure, ptr %80, i32 0, i32 4
  %82 = load i8, ptr %81, align 1, !tbaa !23
  %83 = zext i8 %82 to i32
  %84 = icmp sle i32 %79, %83
  br i1 %84, label %85, label %92

85:                                               ; preds = %69
  %86 = load ptr, ptr %10, align 8, !tbaa !48
  %87 = getelementptr inbounds nuw %struct.CClosure, ptr %86, i32 0, i32 8
  %88 = load i32, ptr %5, align 4, !tbaa !25
  %89 = sub nsw i32 %88, 1
  %90 = sext i32 %89 to i64
  %91 = getelementptr inbounds [1 x %struct.lua_TValue], ptr %87, i64 0, i64 %90
  br label %93

92:                                               ; preds = %69
  br label %93

93:                                               ; preds = %92, %85
  %94 = phi ptr [ %91, %85 ], [ @luaO_nilobject_, %92 ]
  store ptr %94, ptr %3, align 8
  store i32 1, ptr %7, align 4
  call void @llvm.lifetime.end.p0(i64 8, ptr %10) #6
  br label %95

95:                                               ; preds = %93, %66, %47, %42, %33, %29
  %96 = load ptr, ptr %3, align 8
  ret ptr %96
}

; Function Attrs: nounwind uwtable
define dso_local ptr @lua_setupvalue(ptr noundef %0, i32 noundef %1, i32 noundef %2) #0 {
  %4 = alloca ptr, align 8
  %5 = alloca i32, align 4
  %6 = alloca i32, align 4
  %7 = alloca ptr, align 8
  %8 = alloca ptr, align 8
  %9 = alloca ptr, align 8
  %10 = alloca ptr, align 8
  %11 = alloca ptr, align 8
  store ptr %0, ptr %4, align 8, !tbaa !4
  store i32 %1, ptr %5, align 4, !tbaa !25
  store i32 %2, ptr %6, align 4, !tbaa !25
  call void @llvm.lifetime.start.p0(i64 8, ptr %7) #6
  call void @llvm.lifetime.start.p0(i64 8, ptr %8) #6
  call void @llvm.lifetime.start.p0(i64 8, ptr %9) #6
  %12 = load ptr, ptr %4, align 8, !tbaa !4
  %13 = load i32, ptr %5, align 4, !tbaa !25
  %14 = call ptr @index2adr(ptr noundef %12, i32 noundef %13)
  store ptr %14, ptr %9, align 8, !tbaa !9
  %15 = load ptr, ptr %9, align 8, !tbaa !9
  %16 = load i32, ptr %6, align 4, !tbaa !25
  %17 = call ptr @aux_upvalue(ptr noundef %15, i32 noundef %16, ptr noundef %8)
  store ptr %17, ptr %7, align 8, !tbaa !52
  %18 = load ptr, ptr %7, align 8, !tbaa !52
  %19 = icmp ne ptr %18, null
  br i1 %19, label %20, label %75

20:                                               ; preds = %3
  %21 = load ptr, ptr %4, align 8, !tbaa !4
  %22 = getelementptr inbounds nuw %struct.lua_State, ptr %21, i32 0, i32 4
  %23 = load ptr, ptr %22, align 8, !tbaa !11
  %24 = getelementptr inbounds %struct.lua_TValue, ptr %23, i32 -1
  store ptr %24, ptr %22, align 8, !tbaa !11
  call void @llvm.lifetime.start.p0(i64 8, ptr %10) #6
  %25 = load ptr, ptr %4, align 8, !tbaa !4
  %26 = getelementptr inbounds nuw %struct.lua_State, ptr %25, i32 0, i32 4
  %27 = load ptr, ptr %26, align 8, !tbaa !11
  store ptr %27, ptr %10, align 8, !tbaa !9
  call void @llvm.lifetime.start.p0(i64 8, ptr %11) #6
  %28 = load ptr, ptr %8, align 8, !tbaa !9
  store ptr %28, ptr %11, align 8, !tbaa !9
  %29 = load ptr, ptr %11, align 8, !tbaa !9
  %30 = getelementptr inbounds nuw %struct.lua_TValue, ptr %29, i32 0, i32 0
  %31 = load ptr, ptr %10, align 8, !tbaa !9
  %32 = getelementptr inbounds nuw %struct.lua_TValue, ptr %31, i32 0, i32 0
  call void @llvm.memcpy.p0.p0.i64(ptr align 8 %30, ptr align 8 %32, i64 8, i1 false), !tbaa.struct !22
  %33 = load ptr, ptr %10, align 8, !tbaa !9
  %34 = getelementptr inbounds nuw %struct.lua_TValue, ptr %33, i32 0, i32 1
  %35 = load i32, ptr %34, align 8, !tbaa !24
  %36 = load ptr, ptr %11, align 8, !tbaa !9
  %37 = getelementptr inbounds nuw %struct.lua_TValue, ptr %36, i32 0, i32 1
  store i32 %35, ptr %37, align 8, !tbaa !24
  call void @llvm.lifetime.end.p0(i64 8, ptr %11) #6
  call void @llvm.lifetime.end.p0(i64 8, ptr %10) #6
  %38 = load ptr, ptr %4, align 8, !tbaa !4
  %39 = getelementptr inbounds nuw %struct.lua_State, ptr %38, i32 0, i32 4
  %40 = load ptr, ptr %39, align 8, !tbaa !11
  %41 = getelementptr inbounds nuw %struct.lua_TValue, ptr %40, i32 0, i32 1
  %42 = load i32, ptr %41, align 8, !tbaa !24
  %43 = icmp sge i32 %42, 4
  br i1 %43, label %44, label %74

44:                                               ; preds = %20
  %45 = load ptr, ptr %4, align 8, !tbaa !4
  %46 = getelementptr inbounds nuw %struct.lua_State, ptr %45, i32 0, i32 4
  %47 = load ptr, ptr %46, align 8, !tbaa !11
  %48 = getelementptr inbounds nuw %struct.lua_TValue, ptr %47, i32 0, i32 0
  %49 = load ptr, ptr %48, align 8, !tbaa !23
  %50 = getelementptr inbounds nuw %struct.GCheader, ptr %49, i32 0, i32 2
  %51 = load i8, ptr %50, align 1, !tbaa !23
  %52 = zext i8 %51 to i32
  %53 = and i32 %52, 3
  %54 = icmp ne i32 %53, 0
  br i1 %54, label %55, label %74

55:                                               ; preds = %44
  %56 = load ptr, ptr %9, align 8, !tbaa !9
  %57 = getelementptr inbounds nuw %struct.lua_TValue, ptr %56, i32 0, i32 0
  %58 = load ptr, ptr %57, align 8, !tbaa !23
  %59 = getelementptr inbounds nuw %struct.GCheader, ptr %58, i32 0, i32 2
  %60 = load i8, ptr %59, align 1, !tbaa !23
  %61 = zext i8 %60 to i32
  %62 = and i32 %61, 4
  %63 = icmp ne i32 %62, 0
  br i1 %63, label %64, label %74

64:                                               ; preds = %55
  %65 = load ptr, ptr %4, align 8, !tbaa !4
  %66 = load ptr, ptr %9, align 8, !tbaa !9
  %67 = getelementptr inbounds nuw %struct.lua_TValue, ptr %66, i32 0, i32 0
  %68 = load ptr, ptr %67, align 8, !tbaa !23
  %69 = load ptr, ptr %4, align 8, !tbaa !4
  %70 = getelementptr inbounds nuw %struct.lua_State, ptr %69, i32 0, i32 4
  %71 = load ptr, ptr %70, align 8, !tbaa !11
  %72 = getelementptr inbounds nuw %struct.lua_TValue, ptr %71, i32 0, i32 0
  %73 = load ptr, ptr %72, align 8, !tbaa !23
  call void @luaC_barrierf(ptr noundef %65, ptr noundef %68, ptr noundef %73)
  br label %74

74:                                               ; preds = %64, %55, %44, %20
  br label %75

75:                                               ; preds = %74, %3
  %76 = load ptr, ptr %7, align 8, !tbaa !52
  call void @llvm.lifetime.end.p0(i64 8, ptr %9) #6
  call void @llvm.lifetime.end.p0(i64 8, ptr %8) #6
  call void @llvm.lifetime.end.p0(i64 8, ptr %7) #6
  ret ptr %76
}